target datalayout = "e-m:e-p270:32:32-p271:32:32-p272:64:64-i64:64-i128:128-f80:128-n8:16:32:64-S128"
target triple = "x86_64-pc-linux-gnu"

%struct.PyVarObject = type { %struct._object, i64 }
%struct._object = type { %union.anon, ptr }
%union.anon = type { i64 }
%struct.PyPickleBufferObject = type { %struct._object, %struct.Py_buffer, ptr }
%struct.Py_buffer = type { ptr, ptr, i64, i64, i32, i32, ptr, ptr, ptr, ptr, ptr }
%struct.PyMemoryViewObject = type { %struct.PyVarObject, ptr, i64, i32, i64, %struct.Py_buffer, ptr, [1 x i64] }

@PyExc_ValueError = external global ptr, align 8
@.str.1 = private unnamed_addr constant [52 x i8] c"operation forbidden on released PickleBuffer object\00", align 1
@PyExc_BufferError = external global ptr, align 8
@.str.8 = private unnamed_addr constant [53 x i8] c"cannot extract raw buffer from non-contiguous buffer\00", align 1
@.str.9 = private unnamed_addr constant [2 x i8] c"B\00", align 1

; Function Attrs: nounwind uwtable
define internal ptr @picklebuf_raw(ptr noundef %0, ptr noundef %1) #0 {
  %3 = alloca ptr, align 8
  %4 = alloca ptr, align 8
  %5 = alloca ptr, align 8
  %6 = alloca ptr, align 8
  %7 = alloca i32, align 4
  %8 = alloca ptr, align 8
  store ptr %0, ptr %4, align 8, !tbaa !22
  store ptr %1, ptr %5, align 8, !tbaa !4
  %9 = load ptr, ptr %4, align 8, !tbaa !22
  %10 = getelementptr inbounds nuw %struct.PyPickleBufferObject, ptr %9, i32 0, i32 1
  %11 = getelementptr inbounds nuw %struct.Py_buffer, ptr %10, i32 0, i32 1
  %12 = load ptr, ptr %11, align 8, !tbaa !23
  %13 = icmp eq ptr %12, null
  br i1 %13, label %14, label %16

14:                                               ; preds = %2
  %15 = load ptr, ptr @PyExc_ValueError, align 8, !tbaa !4
  call void @PyErr_SetString(ptr noundef %15, ptr noundef @.str.1)
  store ptr null, ptr %3, align 8
  br label %62

16:                                               ; preds = %2
  %17 = load ptr, ptr %4, align 8, !tbaa !22
  %18 = getelementptr inbounds nuw %struct.PyPickleBufferObject, ptr %17, i32 0, i32 1
  %19 = getelementptr inbounds nuw %struct.Py_buffer, ptr %18, i32 0, i32 9
  %20 = load ptr, ptr %19, align 8, !tbaa !33
  %21 = icmp ne ptr %20, null
  br i1 %21, label %27, label %22

22:                                               ; preds = %16
  %23 = load ptr, ptr %4, align 8, !tbaa !22
  %24 = getelementptr inbounds nuw %struct.PyPickleBufferObject, ptr %23, i32 0, i32 1
  %25 = call i32 @PyBuffer_IsContiguous(ptr noundef %24, i8 noundef signext 65)
  %26 = icmp ne i32 %25, 0
  br i1 %26, label %29, label %27

27:                                               ; preds = %22, %16
  %28 = load ptr, ptr @PyExc_BufferError, align 8, !tbaa !4
  call void @PyErr_SetString(ptr noundef %28, ptr noundef @.str.8)
  store ptr null, ptr %3, align 8
  br label %62

29:                                               ; preds = %22
  call void @llvm.lifetime.start.p0(i64 8, ptr %6) #6
  %30 = load ptr, ptr %4, align 8, !tbaa !22
  %31 = call ptr @PyMemoryView_FromObject(ptr noundef %30)
  store ptr %31, ptr %6, align 8, !tbaa !4
  %32 = load ptr, ptr %6, align 8, !tbaa !4
  %33 = icmp eq ptr %32, null
  br i1 %33, label %34, label %35

34:                                               ; preds = %29
  store ptr null, ptr %3, align 8
  store i32 1, ptr %7, align 4
  br label %61

35:                                               ; preds = %29
  call void @llvm.lifetime.start.p0(i64 8, ptr %8) #6
  %36 = load ptr, ptr %6, align 8, !tbaa !4
  store ptr %36, ptr %8, align 8, !tbaa !22
  %37 = load ptr, ptr %8, align 8, !tbaa !22
  %38 = getelementptr inbounds nuw %struct.PyMemoryViewObject, ptr %37, i32 0, i32 5
  %39 = getelementptr inbounds nuw %struct.Py_buffer, ptr %38, i32 0, i32 6
  store ptr @.str.9, ptr %39, align 8, !tbaa !34
  %40 = load ptr, ptr %8, align 8, !tbaa !22
  %41 = getelementptr inbounds nuw %struct.PyMemoryViewObject, ptr %40, i32 0, i32 5
  %42 = getelementptr inbounds nuw %struct.Py_buffer, ptr %41, i32 0, i32 5
  store i32 1, ptr %42, align 4, !tbaa !36
  %43 = load ptr, ptr %8, align 8, !tbaa !22
  %44 = getelementptr inbounds nuw %struct.PyMemoryViewObject, ptr %43, i32 0, i32 5
  %45 = getelementptr inbounds nuw %struct.Py_buffer, ptr %44, i32 0, i32 3
  store i64 1, ptr %45, align 8, !tbaa !37
  %46 = load ptr, ptr %8, align 8, !tbaa !22
  %47 = getelementptr inbounds nuw %struct.PyMemoryViewObject, ptr %46, i32 0, i32 5
  %48 = getelementptr inbounds nuw %struct.Py_buffer, ptr %47, i32 0, i32 2
  %49 = load ptr, ptr %8, align 8, !tbaa !22
  %50 = getelementptr inbounds nuw %struct.PyMemoryViewObject, ptr %49, i32 0, i32 5
  %51 = getelementptr inbounds nuw %struct.Py_buffer, ptr %50, i32 0, i32 7
  store ptr %48, ptr %51, align 8, !tbaa !38
  %52 = load ptr, ptr %8, align 8, !tbaa !22
  %53 = getelementptr inbounds nuw %struct.PyMemoryViewObject, ptr %52, i32 0, i32 5
  %54 = getelementptr inbounds nuw %struct.Py_buffer, ptr %53, i32 0, i32 3
  %55 = load ptr, ptr %8, align 8, !tbaa !22
  %56 = getelementptr inbounds nuw %struct.PyMemoryViewObject, ptr %55, i32 0, i32 5
  %57 = getelementptr inbounds nuw %struct.Py_buffer, ptr %56, i32 0, i32 8
  store ptr %54, ptr %57, align 8, !tbaa !39
  %58 = load ptr, ptr %8, align 8, !tbaa !22
  %59 = getelementptr inbounds nuw %struct.PyMemoryViewObject, ptr %58, i32 0, i32 3
  store i32 6, ptr %59, align 8, !tbaa !40
  %60 = load ptr, ptr %6, align 8, !tbaa !4
  store ptr %60, ptr %3, align 8
  store i32 1, ptr %7, align 4
  call void @llvm.lifetime.end.p0(i64 8, ptr %8) #6
  br label %61

61:                                               ; preds = %35, %34
  call void @llvm.lifetime.end.p0(i64 8, ptr %6) #6
  br label %62

62:                                               ; preds = %61, %27, %14
  %63 = load ptr, ptr %3, align 8
  ret ptr %63
}