; Function Attrs: nounwind uwtable
define internal ptr @picklebuf_raw(ptr noundef %0, ptr readnone captures(none) %1) #0 {
  %3 = getelementptr inbounds nuw i8, ptr %0, i64 16
  %4 = getelementptr inbounds nuw i8, ptr %0, i64 24
  %5 = load ptr, ptr %4, align 8, !tbaa !20
  %6 = icmp eq ptr %5, null
  br i1 %6, label %7, label %9

7:                                                ; preds = %2
  %8 = load ptr, ptr @PyExc_ValueError, align 8, !tbaa !27
  tail call void @PyErr_SetString(ptr noundef %8, ptr noundef nonnull @.str.1) #5
  br label %27

9:                                                ; preds = %2
  %10 = getelementptr inbounds nuw i8, ptr %0, i64 80
  %11 = load ptr, ptr %10, align 8, !tbaa !30
  %.not = icmp eq ptr %11, null
  br i1 %.not, label %12, label %14

12:                                               ; preds = %9
  %13 = tail call i32 @PyBuffer_IsContiguous(ptr noundef nonnull %3, i8 noundef signext 65) #5
  %.not17 = icmp eq i32 %13, 0
  br i1 %.not17, label %14, label %16

14:                                               ; preds = %12, %9
  %15 = load ptr, ptr @PyExc_BufferError, align 8, !tbaa !27
  tail call void @PyErr_SetString(ptr noundef %15, ptr noundef nonnull @.str.8) #5
  br label %27

16:                                               ; preds = %12
  %17 = tail call ptr @PyMemoryView_FromObject(ptr noundef nonnull %0) #5
  %18 = icmp eq ptr %17, null
  br i1 %18, label %27, label %19

19:                                               ; preds = %16
  %20 = getelementptr inbounds nuw i8, ptr %17, i64 96
  store ptr @.str.9, ptr %20, align 8, !tbaa !31
  %21 = getelementptr inbounds nuw i8, ptr %17, i64 92
  store i32 1, ptr %21, align 4, !tbaa !33
  %22 = getelementptr inbounds nuw i8, ptr %17, i64 80
  store i64 1, ptr %22, align 8, !tbaa !34
  %23 = getelementptr inbounds nuw i8, ptr %17, i64 72
  %24 = getelementptr inbounds nuw i8, ptr %17, i64 104
  store ptr %23, ptr %24, align 8, !tbaa !35
  %25 = getelementptr inbounds nuw i8, ptr %17, i64 112
  store ptr %22, ptr %25, align 8, !tbaa !36
  %26 = getelementptr inbounds nuw i8, ptr %17, i64 40
  store i32 6, ptr %26, align 8, !tbaa !37
  br label %27

27:                                               ; preds = %19, %16, %14, %7
  %.0 = phi ptr [ null, %7 ], [ null, %14 ], [ %17, %19 ], [ null, %16 ]
  ret ptr %.0
}